target datalayout = "e-m:e-p270:32:32-p271:32:32-p272:64:64-i64:64-i128:128-f80:128-n8:16:32:64-S128"
target triple = "x86_64-pc-linux-gnu"

%"class.icu_77::MaybeStackArray" = type <{ ptr, i32, i8, [40 x i8], [3 x i8] }>
%"class.icu_77::MeasureUnitImpl" = type { i32, %"class.icu_77::MaybeStackVector", %"class.icu_77::CharString", i64 }
%"class.icu_77::MaybeStackVector" = type { %"class.icu_77::MemoryPool" }
%"class.icu_77::MemoryPool" = type { i32, %"class.icu_77::MaybeStackArray.0" }
%"class.icu_77::MaybeStackArray.0" = type { ptr, i32, i8, [8 x ptr] }
%"class.icu_77::CharString" = type { %"class.icu_77::MaybeStackArray", i32, [4 x i8] }
%"class.icu_77::units::UnitsConverter" = type { [8 x i8], %"struct.icu_77::units::ConversionRate" }
%"struct.icu_77::units::ConversionRate" = type <{ [8 x i8], %"class.icu_77::MeasureUnitImpl", %"class.icu_77::MeasureUnitImpl", %"class.icu_77::CharString", %"class.icu_77::CharString", double, double, double, double, i8, [7 x i8] }>
%"struct.icu_77::units::ConversionInfo" = type { double, double, i8 }

; Function Attrs: mustprogress nounwind uwtable
define void @_ZNK6icu_775units14UnitsConverter17getConversionInfoEv(ptr dead_on_unwind noalias writable sret(%"struct.icu_77::units::ConversionInfo") align 8 %0, ptr noundef nonnull align 8 dereferenceable(520) %1) #0 align 2 {
  %3 = alloca ptr, align 8
  store ptr %1, ptr %3, align 8, !tbaa !92
  %4 = load ptr, ptr %3, align 8
  %5 = getelementptr inbounds nuw %"class.icu_77::units::UnitsConverter", ptr %4, i32 0, i32 1
  %6 = getelementptr inbounds nuw %"struct.icu_77::units::ConversionRate", ptr %5, i32 0, i32 5
  %7 = load double, ptr %6, align 8, !tbaa !112
  %8 = getelementptr inbounds nuw %"class.icu_77::units::UnitsConverter", ptr %4, i32 0, i32 1
  %9 = getelementptr inbounds nuw %"struct.icu_77::units::ConversionRate", ptr %8, i32 0, i32 6
  %10 = load double, ptr %9, align 8, !tbaa !113
  %11 = fdiv double %7, %10
  %12 = getelementptr inbounds nuw %"struct.icu_77::units::ConversionInfo", ptr %0, i32 0, i32 0
  store double %11, ptr %12, align 8, !tbaa !117
  %13 = getelementptr inbounds nuw %"class.icu_77::units::UnitsConverter", ptr %4, i32 0, i32 1
  %14 = getelementptr inbounds nuw %"struct.icu_77::units::ConversionRate", ptr %13, i32 0, i32 7
  %15 = load double, ptr %14, align 8, !tbaa !114
  %16 = getelementptr inbounds nuw %"class.icu_77::units::UnitsConverter", ptr %4, i32 0, i32 1
  %17 = getelementptr inbounds nuw %"struct.icu_77::units::ConversionRate", ptr %16, i32 0, i32 5
  %18 = load double, ptr %17, align 8, !tbaa !112
  %19 = getelementptr inbounds nuw %"class.icu_77::units::UnitsConverter", ptr %4, i32 0, i32 1
  %20 = getelementptr inbounds nuw %"struct.icu_77::units::ConversionRate", ptr %19, i32 0, i32 6
  %21 = load double, ptr %20, align 8, !tbaa !113
  %22 = fdiv double %18, %21
  %23 = getelementptr inbounds nuw %"class.icu_77::units::UnitsConverter", ptr %4, i32 0, i32 1
  %24 = getelementptr inbounds nuw %"struct.icu_77::units::ConversionRate", ptr %23, i32 0, i32 8
  %25 = load double, ptr %24, align 8, !tbaa !115
  %26 = fneg double %25
  %27 = call double @llvm.fmuladd.f64(double %15, double %22, double %26)
  %28 = getelementptr inbounds nuw %"struct.icu_77::units::ConversionInfo", ptr %0, i32 0, i32 1
  store double %27, ptr %28, align 8, !tbaa !119
  %29 = getelementptr inbounds nuw %"class.icu_77::units::UnitsConverter", ptr %4, i32 0, i32 1
  %30 = getelementptr inbounds nuw %"struct.icu_77::units::ConversionRate", ptr %29, i32 0, i32 9
  %31 = load i8, ptr %30, align 8, !tbaa !116, !range !39, !noundef !40
  %32 = trunc i8 %31 to i1
  %33 = getelementptr inbounds nuw %"struct.icu_77::units::ConversionInfo", ptr %0, i32 0, i32 2
  %34 = zext i1 %32 to i8
  store i8 %34, ptr %33, align 8, !tbaa !120
  ret void
}