; Function Attrs: mustprogress nofree norecurse nosync nounwind willreturn memory(argmem: readwrite) uwtable
define void @_ZNK6icu_775units14UnitsConverter17getConversionInfoEv(ptr dead_on_unwind noalias writable writeonly sret(%"struct.icu_77::units::ConversionInfo") align 8 captures(none) initializes((0, 17)) %0, ptr noundef nonnull readonly align 8 captures(none) dereferenceable(520) %1) local_unnamed_addr #11 align 2 {
  %3 = getelementptr inbounds nuw i8, ptr %1, i64 480
  %4 = load double, ptr %3, align 8, !tbaa !106
  %5 = getelementptr inbounds nuw i8, ptr %1, i64 488
  %6 = load double, ptr %5, align 8, !tbaa !107
  %7 = fdiv double %4, %6
  store double %7, ptr %0, align 8, !tbaa !113
  %8 = getelementptr inbounds nuw i8, ptr %1, i64 496
  %9 = load double, ptr %8, align 8, !tbaa !108
  %10 = getelementptr inbounds nuw i8, ptr %1, i64 504
  %11 = load double, ptr %10, align 8, !tbaa !109
  %12 = fneg double %11
  %13 = tail call double @llvm.fmuladd.f64(double %9, double %7, double %12)
  %14 = getelementptr inbounds nuw i8, ptr %0, i64 8
  store double %13, ptr %14, align 8, !tbaa !115
  %15 = getelementptr inbounds nuw i8, ptr %1, i64 512
  %16 = load i8, ptr %15, align 8, !tbaa !110, !range !111, !noundef !112
  %17 = getelementptr inbounds nuw i8, ptr %0, i64 16
  store i8 %16, ptr %17, align 8, !tbaa !116
  ret void
}